target datalayout = "e-m:e-p270:32:32-p271:32:32-p272:64:64-i64:64-i128:128-f80:128-n8:16:32:64-S128"
target triple = "x86_64-pc-linux-gnu"

%struct.Cec_ParFra_t_ = type { i32, i32, i32, i32, i32, i32, i32, i32, i32, i32, i32, i32, i32, i32, i32, i32, i32, i32, i32, i32, i32, i32, i32, i32, i32, ptr }

; Function Attrs: nounwind uwtable
define void @Cec_ManFraSetDefaultParams(ptr noundef %0) #0 {
  %2 = alloca ptr, align 8
  store ptr %0, ptr %2, align 8, !tbaa !46
  %3 = load ptr, ptr %2, align 8, !tbaa !46
  call void @llvm.memset.p0.i64(ptr align 8 %3, i8 0, i64 112, i1 false)
  %4 = load ptr, ptr %2, align 8, !tbaa !46
  %5 = getelementptr inbounds nuw %struct.Cec_ParFra_t_, ptr %4, i32 0, i32 1
  store i32 15, ptr %5, align 4, !tbaa !48
  %6 = load ptr, ptr %2, align 8, !tbaa !46
  %7 = getelementptr inbounds nuw %struct.Cec_ParFra_t_, ptr %6, i32 0, i32 2
  store i32 15, ptr %7, align 8, !tbaa !51
  %8 = load ptr, ptr %2, align 8, !tbaa !46
  %9 = getelementptr inbounds nuw %struct.Cec_ParFra_t_, ptr %8, i32 0, i32 6
  store i32 0, ptr %9, align 8, !tbaa !52
  %10 = load ptr, ptr %2, align 8, !tbaa !46
  %11 = getelementptr inbounds nuw %struct.Cec_ParFra_t_, ptr %10, i32 0, i32 3
  store i32 10, ptr %11, align 4, !tbaa !53
  %12 = load ptr, ptr %2, align 8, !tbaa !46
  %13 = getelementptr inbounds nuw %struct.Cec_ParFra_t_, ptr %12, i32 0, i32 4
  store i32 100, ptr %13, align 8, !tbaa !54
  %14 = load ptr, ptr %2, align 8, !tbaa !46
  %15 = getelementptr inbounds nuw %struct.Cec_ParFra_t_, ptr %14, i32 0, i32 7
  store i32 0, ptr %15, align 4, !tbaa !55
  %16 = load ptr, ptr %2, align 8, !tbaa !46
  %17 = getelementptr inbounds nuw %struct.Cec_ParFra_t_, ptr %16, i32 0, i32 8
  store i32 1, ptr %17, align 8, !tbaa !56
  %18 = load ptr, ptr %2, align 8, !tbaa !46
  %19 = getelementptr inbounds nuw %struct.Cec_ParFra_t_, ptr %18, i32 0, i32 12
  store i32 0, ptr %19, align 8, !tbaa !57
  %20 = load ptr, ptr %2, align 8, !tbaa !46
  %21 = getelementptr inbounds nuw %struct.Cec_ParFra_t_, ptr %20, i32 0, i32 13
  store i32 0, ptr %21, align 4, !tbaa !58
  %22 = load ptr, ptr %2, align 8, !tbaa !46
  %23 = getelementptr inbounds nuw %struct.Cec_ParFra_t_, ptr %22, i32 0, i32 14
  store i32 0, ptr %23, align 8, !tbaa !59
  %24 = load ptr, ptr %2, align 8, !tbaa !46
  %25 = getelementptr inbounds nuw %struct.Cec_ParFra_t_, ptr %24, i32 0, i32 15
  store i32 0, ptr %25, align 4, !tbaa !60
  %26 = load ptr, ptr %2, align 8, !tbaa !46
  %27 = getelementptr inbounds nuw %struct.Cec_ParFra_t_, ptr %26, i32 0, i32 16
  store i32 0, ptr %27, align 8, !tbaa !61
  %28 = load ptr, ptr %2, align 8, !tbaa !46
  %29 = getelementptr inbounds nuw %struct.Cec_ParFra_t_, ptr %28, i32 0, i32 18
  store i32 0, ptr %29, align 8, !tbaa !62
  %30 = load ptr, ptr %2, align 8, !tbaa !46
  %31 = getelementptr inbounds nuw %struct.Cec_ParFra_t_, ptr %30, i32 0, i32 20
  store i32 0, ptr %31, align 8, !tbaa !63
  %32 = load ptr, ptr %2, align 8, !tbaa !46
  %33 = getelementptr inbounds nuw %struct.Cec_ParFra_t_, ptr %32, i32 0, i32 21
  store i32 0, ptr %33, align 4, !tbaa !64
  %34 = load ptr, ptr %2, align 8, !tbaa !46
  %35 = getelementptr inbounds nuw %struct.Cec_ParFra_t_, ptr %34, i32 0, i32 22
  store i32 -1, ptr %35, align 8, !tbaa !65
  ret void
}