; Function Attrs: mustprogress nofree norecurse nosync nounwind willreturn memory(argmem: write) uwtable
define void @Cec_ManFraSetDefaultParams(ptr noundef writeonly captures(none) initializes((0, 112)) %0) local_unnamed_addr #0 {
  tail call void @llvm.memset.p0.i64(ptr noundef nonnull align 8 dereferenceable(112) %0, i8 0, i64 112, i1 false)
  %2 = getelementptr inbounds nuw i8, ptr %0, i64 4
  store i32 15, ptr %2, align 4, !tbaa !31
  %3 = getelementptr inbounds nuw i8, ptr %0, i64 8
  store i32 15, ptr %3, align 8, !tbaa !35
  %4 = getelementptr inbounds nuw i8, ptr %0, i64 12
  store i32 10, ptr %4, align 4, !tbaa !36
  %5 = getelementptr inbounds nuw i8, ptr %0, i64 16
  store i32 100, ptr %5, align 8, !tbaa !37
  %6 = getelementptr inbounds nuw i8, ptr %0, i64 32
  store i32 1, ptr %6, align 8, !tbaa !38
  %7 = getelementptr inbounds nuw i8, ptr %0, i64 48
  %8 = getelementptr inbounds nuw i8, ptr %0, i64 80
  store i32 0, ptr %8, align 8, !tbaa !39
  %9 = getelementptr inbounds nuw i8, ptr %0, i64 88
  tail call void @llvm.memset.p0.i64(ptr noundef nonnull align 8 dereferenceable(20) %7, i8 0, i64 20, i1 false)
  store i32 -1, ptr %9, align 8, !tbaa !40
  ret void
}